target datalayout = "e-m:e-p270:32:32-p271:32:32-p272:64:64-i64:64-i128:128-f80:128-n8:16:32:64-S128"
target triple = "x86_64-pc-linux-gnu"

%struct.CBuf = type { ptr, i64 }
%struct.CSzFolder = type { ptr, ptr, ptr, ptr, i32, i32, i32, i32, i32, i32 }
%struct.ISzAlloc = type { ptr, ptr }
%struct.CSzFileItem = type { %struct.CNtfsFileTime, i64, i32, i32, i8, i8, i8, i8, i8, i8 }
%struct.CNtfsFileTime = type { i32, i32 }
%struct.CSzAr = type { ptr, ptr, ptr, ptr, ptr, i32, i32, i32 }
%struct.CSzArEx = type { %struct.CSzAr, i64, i64, ptr, ptr, ptr, ptr, ptr, %struct.CBuf }

; Function Attrs: nounwind uwtable
define internal i32 @SzArEx_Fill(ptr noundef %0, ptr noundef %1) #0 {
  %3 = alloca i32, align 4
  %4 = alloca ptr, align 8
  %5 = alloca ptr, align 8
  %6 = alloca i32, align 4
  %7 = alloca i64, align 8
  %8 = alloca i32, align 4
  %9 = alloca i32, align 4
  %10 = alloca i32, align 4
  %11 = alloca ptr, align 8
  %12 = alloca i32, align 4
  store ptr %0, ptr %4, align 8
  store ptr %1, ptr %5, align 8
  store i32 0, ptr %6, align 4
  store i64 0, ptr %7, align 8
  store i32 0, ptr %9, align 4
  store i32 0, ptr %10, align 4
  %13 = load ptr, ptr %4, align 8
  %14 = getelementptr inbounds %struct.CSzArEx, ptr %13, i32 0, i32 0
  %15 = getelementptr inbounds %struct.CSzAr, ptr %14, i32 0, i32 6
  %16 = load i32, ptr %15, align 4
  %17 = icmp eq i32 %16, 0
  br i1 %17, label %18, label %21

18:                                               ; preds = %2
  %19 = load ptr, ptr %4, align 8
  %20 = getelementptr inbounds %struct.CSzArEx, ptr %19, i32 0, i32 3
  store ptr null, ptr %20, align 8
  br label %38

21:                                               ; preds = %2
  %22 = load ptr, ptr %5, align 8
  %23 = getelementptr inbounds %struct.ISzAlloc, ptr %22, i32 0, i32 0
  %24 = load ptr, ptr %23, align 8
  %25 = load ptr, ptr %5, align 8
  %26 = load ptr, ptr %4, align 8
  %27 = getelementptr inbounds %struct.CSzArEx, ptr %26, i32 0, i32 0
  %28 = getelementptr inbounds %struct.CSzAr, ptr %27, i32 0, i32 6
  %29 = load i32, ptr %28, align 4
  %30 = zext i32 %29 to i64
  %31 = mul i64 %30, 4
  %32 = call ptr %24(ptr noundef %25, i64 noundef %31)
  %33 = load ptr, ptr %4, align 8
  %34 = getelementptr inbounds %struct.CSzArEx, ptr %33, i32 0, i32 3
  store ptr %32, ptr %34, align 8
  %35 = icmp eq ptr %32, null
  br i1 %35, label %36, label %37

36:                                               ; preds = %21
  store i32 2, ptr %3, align 4
  br label %277

37:                                               ; preds = %21
  br label %38

38:                                               ; preds = %37, %18
  store i32 0, ptr %8, align 4
  br label %39

39:                                               ; preds = %65, %38
  %40 = load i32, ptr %8, align 4
  %41 = load ptr, ptr %4, align 8
  %42 = getelementptr inbounds %struct.CSzArEx, ptr %41, i32 0, i32 0
  %43 = getelementptr inbounds %struct.CSzAr, ptr %42, i32 0, i32 6
  %44 = load i32, ptr %43, align 4
  %45 = icmp ult i32 %40, %44
  br i1 %45, label %46, label %68

46:                                               ; preds = %39
  %47 = load i32, ptr %6, align 4
  %48 = load ptr, ptr %4, align 8
  %49 = getelementptr inbounds %struct.CSzArEx, ptr %48, i32 0, i32 3
  %50 = load ptr, ptr %49, align 8
  %51 = load i32, ptr %8, align 4
  %52 = zext i32 %51 to i64
  %53 = getelementptr inbounds i32, ptr %50, i64 %52
  store i32 %47, ptr %53, align 4
  %54 = load ptr, ptr %4, align 8
  %55 = getelementptr inbounds %struct.CSzArEx, ptr %54, i32 0, i32 0
  %56 = getelementptr inbounds %struct.CSzAr, ptr %55, i32 0, i32 3
  %57 = load ptr, ptr %56, align 8
  %58 = load i32, ptr %8, align 4
  %59 = zext i32 %58 to i64
  %60 = getelementptr inbounds %struct.CSzFolder, ptr %57, i64 %59
  %61 = getelementptr inbounds %struct.CSzFolder, ptr %60, i32 0, i32 6
  %62 = load i32, ptr %61, align 8
  %63 = load i32, ptr %6, align 4
  %64 = add i32 %63, %62
  store i32 %64, ptr %6, align 4
  br label %65

65:                                               ; preds = %46
  %66 = load i32, ptr %8, align 4
  %67 = add i32 %66, 1
  store i32 %67, ptr %8, align 4
  br label %39

68:                                               ; preds = %39
  %69 = load ptr, ptr %4, align 8
  %70 = getelementptr inbounds %struct.CSzArEx, ptr %69, i32 0, i32 0
  %71 = getelementptr inbounds %struct.CSzAr, ptr %70, i32 0, i32 5
  %72 = load i32, ptr %71, align 8
  %73 = icmp eq i32 %72, 0
  br i1 %73, label %74, label %77

74:                                               ; preds = %68
  %75 = load ptr, ptr %4, align 8
  %76 = getelementptr inbounds %struct.CSzArEx, ptr %75, i32 0, i32 4
  store ptr null, ptr %76, align 8
  br label %94

77:                                               ; preds = %68
  %78 = load ptr, ptr %5, align 8
  %79 = getelementptr inbounds %struct.ISzAlloc, ptr %78, i32 0, i32 0
  %80 = load ptr, ptr %79, align 8
  %81 = load ptr, ptr %5, align 8
  %82 = load ptr, ptr %4, align 8
  %83 = getelementptr inbounds %struct.CSzArEx, ptr %82, i32 0, i32 0
  %84 = getelementptr inbounds %struct.CSzAr, ptr %83, i32 0, i32 5
  %85 = load i32, ptr %84, align 8
  %86 = zext i32 %85 to i64
  %87 = mul i64 %86, 8
  %88 = call ptr %80(ptr noundef %81, i64 noundef %87)
  %89 = load ptr, ptr %4, align 8
  %90 = getelementptr inbounds %struct.CSzArEx, ptr %89, i32 0, i32 4
  store ptr %88, ptr %90, align 8
  %91 = icmp eq ptr %88, null
  br i1 %91, label %92, label %93

92:                                               ; preds = %77
  store i32 2, ptr %3, align 4
  br label %277

93:                                               ; preds = %77
  br label %94

94:                                               ; preds = %93, %74
  store i32 0, ptr %8, align 4
  br label %95

95:                                               ; preds = %120, %94
  %96 = load i32, ptr %8, align 4
  %97 = load ptr, ptr %4, align 8
  %98 = getelementptr inbounds %struct.CSzArEx, ptr %97, i32 0, i32 0
  %99 = getelementptr inbounds %struct.CSzAr, ptr %98, i32 0, i32 5
  %100 = load i32, ptr %99, align 8
  %101 = icmp ult i32 %96, %100
  br i1 %101, label %102, label %123

102:                                              ; preds = %95
  %103 = load i64, ptr %7, align 8
  %104 = load ptr, ptr %4, align 8
  %105 = getelementptr inbounds %struct.CSzArEx, ptr %104, i32 0, i32 4
  %106 = load ptr, ptr %105, align 8
  %107 = load i32, ptr %8, align 4
  %108 = zext i32 %107 to i64
  %109 = getelementptr inbounds i64, ptr %106, i64 %108
  store i64 %103, ptr %109, align 8
  %110 = load ptr, ptr %4, align 8
  %111 = getelementptr inbounds %struct.CSzArEx, ptr %110, i32 0, i32 0
  %112 = getelementptr inbounds %struct.CSzAr, ptr %111, i32 0, i32 0
  %113 = load ptr, ptr %112, align 8
  %114 = load i32, ptr %8, align 4
  %115 = zext i32 %114 to i64
  %116 = getelementptr inbounds i64, ptr %113, i64 %115
  %117 = load i64, ptr %116, align 8
  %118 = load i64, ptr %7, align 8
  %119 = add i64 %118, %117
  store i64 %119, ptr %7, align 8
  br label %120

120:                                              ; preds = %102
  %121 = load i32, ptr %8, align 4
  %122 = add i32 %121, 1
  store i32 %122, ptr %8, align 4
  br label %95

123:                                              ; preds = %95
  %124 = load ptr, ptr %4, align 8
  %125 = getelementptr inbounds %struct.CSzArEx, ptr %124, i32 0, i32 0
  %126 = getelementptr inbounds %struct.CSzAr, ptr %125, i32 0, i32 6
  %127 = load i32, ptr %126, align 4
  %128 = icmp eq i32 %127, 0
  br i1 %128, label %129, label %132

129:                                              ; preds = %123
  %130 = load ptr, ptr %4, align 8
  %131 = getelementptr inbounds %struct.CSzArEx, ptr %130, i32 0, i32 5
  store ptr null, ptr %131, align 8
  br label %149

132:                                              ; preds = %123
  %133 = load ptr, ptr %5, align 8
  %134 = getelementptr inbounds %struct.ISzAlloc, ptr %133, i32 0, i32 0
  %135 = load ptr, ptr %134, align 8
  %136 = load ptr, ptr %5, align 8
  %137 = load ptr, ptr %4, align 8
  %138 = getelementptr inbounds %struct.CSzArEx, ptr %137, i32 0, i32 0
  %139 = getelementptr inbounds %struct.CSzAr, ptr %138, i32 0, i32 6
  %140 = load i32, ptr %139, align 4
  %141 = zext i32 %140 to i64
  %142 = mul i64 %141, 4
  %143 = call ptr %135(ptr noundef %136, i64 noundef %142)
  %144 = load ptr, ptr %4, align 8
  %145 = getelementptr inbounds %struct.CSzArEx, ptr %144, i32 0, i32 5
  store ptr %143, ptr %145, align 8
  %146 = icmp eq ptr %143, null
  br i1 %146, label %147, label %148

147:                                              ; preds = %132
  store i32 2, ptr %3, align 4
  br label %277

148:                                              ; preds = %132
  br label %149

149:                                              ; preds = %148, %129
  %150 = load ptr, ptr %4, align 8
  %151 = getelementptr inbounds %struct.CSzArEx, ptr %150, i32 0, i32 0
  %152 = getelementptr inbounds %struct.CSzAr, ptr %151, i32 0, i32 7
  %153 = load i32, ptr %152, align 8
  %154 = icmp eq i32 %153, 0
  br i1 %154, label %155, label %158

155:                                              ; preds = %149
  %156 = load ptr, ptr %4, align 8
  %157 = getelementptr inbounds %struct.CSzArEx, ptr %156, i32 0, i32 6
  store ptr null, ptr %157, align 8
  br label %175

158:                                              ; preds = %149
  %159 = load ptr, ptr %5, align 8
  %160 = getelementptr inbounds %struct.ISzAlloc, ptr %159, i32 0, i32 0
  %161 = load ptr, ptr %160, align 8
  %162 = load ptr, ptr %5, align 8
  %163 = load ptr, ptr %4, align 8
  %164 = getelementptr inbounds %struct.CSzArEx, ptr %163, i32 0, i32 0
  %165 = getelementptr inbounds %struct.CSzAr, ptr %164, i32 0, i32 7
  %166 = load i32, ptr %165, align 8
  %167 = zext i32 %166 to i64
  %168 = mul i64 %167, 4
  %169 = call ptr %161(ptr noundef %162, i64 noundef %168)
  %170 = load ptr, ptr %4, align 8
  %171 = getelementptr inbounds %struct.CSzArEx, ptr %170, i32 0, i32 6
  store ptr %169, ptr %171, align 8
  %172 = icmp eq ptr %169, null
  br i1 %172, label %173, label %174

173:                                              ; preds = %158
  store i32 2, ptr %3, align 4
  br label %277

174:                                              ; preds = %158
  br label %175

175:                                              ; preds = %174, %155
  store i32 0, ptr %8, align 4
  br label %176

176:                                              ; preds = %273, %175
  %177 = load i32, ptr %8, align 4
  %178 = load ptr, ptr %4, align 8
  %179 = getelementptr inbounds %struct.CSzArEx, ptr %178, i32 0, i32 0
  %180 = getelementptr inbounds %struct.CSzAr, ptr %179, i32 0, i32 7
  %181 = load i32, ptr %180, align 8
  %182 = icmp ult i32 %177, %181
  br i1 %182, label %183, label %276

183:                                              ; preds = %176
  %184 = load ptr, ptr %4, align 8
  %185 = getelementptr inbounds %struct.CSzArEx, ptr %184, i32 0, i32 0
  %186 = getelementptr inbounds %struct.CSzAr, ptr %185, i32 0, i32 4
  %187 = load ptr, ptr %186, align 8
  %188 = load i32, ptr %8, align 4
  %189 = zext i32 %188 to i64
  %190 = getelementptr inbounds %struct.CSzFileItem, ptr %187, i64 %189
  store ptr %190, ptr %11, align 8
  %191 = load ptr, ptr %11, align 8
  %192 = getelementptr inbounds %struct.CSzFileItem, ptr %191, i32 0, i32 4
  %193 = load i8, ptr %192, align 8
  %194 = icmp ne i8 %193, 0
  %195 = xor i1 %194, true
  %196 = zext i1 %195 to i32
  store i32 %196, ptr %12, align 4
  %197 = load i32, ptr %12, align 4
  %198 = icmp ne i32 %197, 0
  br i1 %198, label %199, label %209

199:                                              ; preds = %183
  %200 = load i32, ptr %10, align 4
  %201 = icmp eq i32 %200, 0
  br i1 %201, label %202, label %209

202:                                              ; preds = %199
  %203 = load ptr, ptr %4, align 8
  %204 = getelementptr inbounds %struct.CSzArEx, ptr %203, i32 0, i32 6
  %205 = load ptr, ptr %204, align 8
  %206 = load i32, ptr %8, align 4
  %207 = zext i32 %206 to i64
  %208 = getelementptr inbounds i32, ptr %205, i64 %207
  store i32 -1, ptr %208, align 4
  br label %273

209:                                              ; preds = %199, %183
  %210 = load i32, ptr %10, align 4
  %211 = icmp eq i32 %210, 0
  br i1 %211, label %212, label %244

212:                                              ; preds = %209
  br label %213

213:                                              ; preds = %240, %212
  %214 = load i32, ptr %9, align 4
  %215 = load ptr, ptr %4, align 8
  %216 = getelementptr inbounds %struct.CSzArEx, ptr %215, i32 0, i32 0
  %217 = getelementptr inbounds %struct.CSzAr, ptr %216, i32 0, i32 6
  %218 = load i32, ptr %217, align 4
  %219 = icmp uge i32 %214, %218
  br i1 %219, label %220, label %221

220:                                              ; preds = %213
  store i32 16, ptr %3, align 4
  br label %277

221:                                              ; preds = %213
  %222 = load i32, ptr %8, align 4
  %223 = load ptr, ptr %4, align 8
  %224 = getelementptr inbounds %struct.CSzArEx, ptr %223, i32 0, i32 5
  %225 = load ptr, ptr %224, align 8
  %226 = load i32, ptr %9, align 4
  %227 = zext i32 %226 to i64
  %228 = getelementptr inbounds i32, ptr %225, i64 %227
  store i32 %222, ptr %228, align 4
  %229 = load ptr, ptr %4, align 8
  %230 = getelementptr inbounds %struct.CSzArEx, ptr %229, i32 0, i32 0
  %231 = getelementptr inbounds %struct.CSzAr, ptr %230, i32 0, i32 3
  %232 = load ptr, ptr %231, align 8
  %233 = load i32, ptr %9, align 4
  %234 = zext i32 %233 to i64
  %235 = getelementptr inbounds %struct.CSzFolder, ptr %232, i64 %234
  %236 = getelementptr inbounds %struct.CSzFolder, ptr %235, i32 0, i32 9
  %237 = load i32, ptr %236, align 4
  %238 = icmp ne i32 %237, 0
  br i1 %238, label %239, label %240

239:                                              ; preds = %221
  br label %243

240:                                              ; preds = %221
  %241 = load i32, ptr %9, align 4
  %242 = add i32 %241, 1
  store i32 %242, ptr %9, align 4
  br label %213

243:                                              ; preds = %239
  br label %244

244:                                              ; preds = %243, %209
  %245 = load i32, ptr %9, align 4
  %246 = load ptr, ptr %4, align 8
  %247 = getelementptr inbounds %struct.CSzArEx, ptr %246, i32 0, i32 6
  %248 = load ptr, ptr %247, align 8
  %249 = load i32, ptr %8, align 4
  %250 = zext i32 %249 to i64
  %251 = getelementptr inbounds i32, ptr %248, i64 %250
  store i32 %245, ptr %251, align 4
  %252 = load i32, ptr %12, align 4
  %253 = icmp ne i32 %252, 0
  br i1 %253, label %254, label %255

254:                                              ; preds = %244
  br label %273

255:                                              ; preds = %244
  %256 = load i32, ptr %10, align 4
  %257 = add i32 %256, 1
  store i32 %257, ptr %10, align 4
  %258 = load i32, ptr %10, align 4
  %259 = load ptr, ptr %4, align 8
  %260 = getelementptr inbounds %struct.CSzArEx, ptr %259, i32 0, i32 0
  %261 = getelementptr inbounds %struct.CSzAr, ptr %260, i32 0, i32 3
  %262 = load ptr, ptr %261, align 8
  %263 = load i32, ptr %9, align 4
  %264 = zext i32 %263 to i64
  %265 = getelementptr inbounds %struct.CSzFolder, ptr %262, i64 %264
  %266 = getelementptr inbounds %struct.CSzFolder, ptr %265, i32 0, i32 9
  %267 = load i32, ptr %266, align 4
  %268 = icmp uge i32 %258, %267
  br i1 %268, label %269, label %272

269:                                              ; preds = %255
  %270 = load i32, ptr %9, align 4
  %271 = add i32 %270, 1
  store i32 %271, ptr %9, align 4
  store i32 0, ptr %10, align 4
  br label %272

272:                                              ; preds = %269, %255
  br label %273

273:                                              ; preds = %272, %254, %202
  %274 = load i32, ptr %8, align 4
  %275 = add i32 %274, 1
  store i32 %275, ptr %8, align 4
  br label %176

276:                                              ; preds = %176
  store i32 0, ptr %3, align 4
  br label %277

277:                                              ; preds = %276, %220, %173, %147, %92, %36
  %278 = load i32, ptr %3, align 4
  ret i32 %278
}