; Function Attrs: nounwind uwtable
define internal fastcc range(i32 0, 17) i32 @SzArEx_Fill(ptr noundef captures(none) initializes((72, 80)) %0, ptr noundef %1) unnamed_addr #0 {
  %3 = getelementptr inbounds nuw i8, ptr %0, i64 44
  %4 = load i32, ptr %3, align 4
  %5 = icmp eq i32 %4, 0
  br i1 %5, label %.thread, label %7

.thread:                                          ; preds = %2
  %6 = getelementptr inbounds nuw i8, ptr %0, i64 72
  store ptr null, ptr %6, align 8
  br label %._crit_edge

7:                                                ; preds = %2
  %8 = load ptr, ptr %1, align 8
  %9 = zext i32 %4 to i64
  %10 = shl nuw nsw i64 %9, 2
  %11 = tail call ptr %8(ptr noundef nonnull %1, i64 noundef %10) #11
  %12 = getelementptr inbounds nuw i8, ptr %0, i64 72
  store ptr %11, ptr %12, align 8
  %13 = icmp eq ptr %11, null
  br i1 %13, label %.loopexit, label %14

14:                                               ; preds = %7
  %.pre = load i32, ptr %3, align 4
  %15 = icmp eq i32 %.pre, 0
  br i1 %15, label %._crit_edge, label %.lr.ph

.lr.ph:                                           ; preds = %14
  %16 = getelementptr inbounds nuw i8, ptr %0, i64 72
  %17 = getelementptr inbounds nuw i8, ptr %0, i64 24
  br label %18

18:                                               ; preds = %.lr.ph, %18
  %indvars.iv = phi i64 [ 0, %.lr.ph ], [ %indvars.iv.next, %18 ]
  %.07192 = phi i32 [ 0, %.lr.ph ], [ %24, %18 ]
  %19 = load ptr, ptr %16, align 8
  %20 = getelementptr inbounds nuw i32, ptr %19, i64 %indvars.iv
  store i32 %.07192, ptr %20, align 4
  %21 = load ptr, ptr %17, align 8
  %22 = getelementptr inbounds nuw %struct.CSzFolder, ptr %21, i64 %indvars.iv, i32 6
  %23 = load i32, ptr %22, align 8
  %24 = add i32 %23, %.07192
  %indvars.iv.next = add nuw nsw i64 %indvars.iv, 1
  %25 = load i32, ptr %3, align 4
  %26 = zext i32 %25 to i64
  %27 = icmp samesign ult i64 %indvars.iv.next, %26
  br i1 %27, label %18, label %._crit_edge

._crit_edge:                                      ; preds = %18, %.thread, %14
  %28 = getelementptr inbounds nuw i8, ptr %0, i64 40
  %29 = load i32, ptr %28, align 8
  %30 = icmp eq i32 %29, 0
  br i1 %30, label %.thread127, label %32

.thread127:                                       ; preds = %._crit_edge
  %31 = getelementptr inbounds nuw i8, ptr %0, i64 80
  store ptr null, ptr %31, align 8
  br label %._crit_edge97

32:                                               ; preds = %._crit_edge
  %33 = load ptr, ptr %1, align 8
  %34 = zext i32 %29 to i64
  %35 = shl nuw nsw i64 %34, 3
  %36 = tail call ptr %33(ptr noundef nonnull %1, i64 noundef %35) #11
  %37 = getelementptr inbounds nuw i8, ptr %0, i64 80
  store ptr %36, ptr %37, align 8
  %38 = icmp eq ptr %36, null
  br i1 %38, label %.loopexit, label %39

39:                                               ; preds = %32
  %.pre123 = load i32, ptr %28, align 8
  %40 = icmp eq i32 %.pre123, 0
  br i1 %40, label %._crit_edge97, label %.lr.ph96

.lr.ph96:                                         ; preds = %39
  %41 = getelementptr inbounds nuw i8, ptr %0, i64 80
  br label %42

42:                                               ; preds = %.lr.ph96, %42
  %indvars.iv112 = phi i64 [ 0, %.lr.ph96 ], [ %indvars.iv.next113, %42 ]
  %.07893 = phi i64 [ 0, %.lr.ph96 ], [ %48, %42 ]
  %43 = load ptr, ptr %41, align 8
  %44 = getelementptr inbounds nuw i64, ptr %43, i64 %indvars.iv112
  store i64 %.07893, ptr %44, align 8
  %45 = load ptr, ptr %0, align 8
  %46 = getelementptr inbounds nuw i64, ptr %45, i64 %indvars.iv112
  %47 = load i64, ptr %46, align 8
  %48 = add i64 %47, %.07893
  %indvars.iv.next113 = add nuw nsw i64 %indvars.iv112, 1
  %49 = load i32, ptr %28, align 8
  %50 = zext i32 %49 to i64
  %51 = icmp samesign ult i64 %indvars.iv.next113, %50
  br i1 %51, label %42, label %._crit_edge97

._crit_edge97:                                    ; preds = %42, %.thread127, %39
  %52 = load i32, ptr %3, align 4
  %53 = icmp eq i32 %52, 0
  br i1 %53, label %54, label %56

54:                                               ; preds = %._crit_edge97
  %55 = getelementptr inbounds nuw i8, ptr %0, i64 88
  store ptr null, ptr %55, align 8
  br label %63

56:                                               ; preds = %._crit_edge97
  %57 = load ptr, ptr %1, align 8
  %58 = zext i32 %52 to i64
  %59 = shl nuw nsw i64 %58, 2
  %60 = tail call ptr %57(ptr noundef nonnull %1, i64 noundef %59) #11
  %61 = getelementptr inbounds nuw i8, ptr %0, i64 88
  store ptr %60, ptr %61, align 8
  %62 = icmp eq ptr %60, null
  br i1 %62, label %.loopexit, label %63

63:                                               ; preds = %56, %54
  %64 = getelementptr inbounds nuw i8, ptr %0, i64 48
  %65 = load i32, ptr %64, align 8
  %66 = icmp eq i32 %65, 0
  br i1 %66, label %.thread129, label %68

.thread129:                                       ; preds = %63
  %67 = getelementptr inbounds nuw i8, ptr %0, i64 96
  store ptr null, ptr %67, align 8
  br label %.loopexit

68:                                               ; preds = %63
  %69 = load ptr, ptr %1, align 8
  %70 = zext i32 %65 to i64
  %71 = shl nuw nsw i64 %70, 2
  %72 = tail call ptr %69(ptr noundef nonnull %1, i64 noundef %71) #11
  %73 = getelementptr inbounds nuw i8, ptr %0, i64 96
  store ptr %72, ptr %73, align 8
  %74 = icmp eq ptr %72, null
  br i1 %74, label %.loopexit, label %75

75:                                               ; preds = %68
  %.pre125 = load i32, ptr %64, align 8
  %76 = icmp eq i32 %.pre125, 0
  br i1 %76, label %.loopexit, label %.lr.ph105

.lr.ph105:                                        ; preds = %75
  %77 = getelementptr inbounds nuw i8, ptr %0, i64 32
  %78 = getelementptr inbounds nuw i8, ptr %0, i64 88
  %79 = getelementptr inbounds nuw i8, ptr %0, i64 24
  %80 = getelementptr inbounds nuw i8, ptr %0, i64 96
  br label %81

81:                                               ; preds = %.lr.ph105, %111
  %indvars.iv118 = phi i64 [ 0, %.lr.ph105 ], [ %indvars.iv.next119, %111 ]
  %.072103 = phi i32 [ 0, %.lr.ph105 ], [ %.1, %111 ]
  %.073102 = phi i32 [ 0, %.lr.ph105 ], [ %.174, %111 ]
  %82 = load ptr, ptr %77, align 8
  %83 = getelementptr inbounds nuw %struct.CSzFileItem, ptr %82, i64 %indvars.iv118, i32 4
  %84 = load i8, ptr %83, align 8
  %.not = icmp eq i8 %84, 0
  %85 = icmp eq i32 %.072103, 0
  %or.cond = select i1 %.not, i1 %85, i1 false
  br i1 %or.cond, label %86, label %89

86:                                               ; preds = %81
  %87 = load ptr, ptr %80, align 8
  %88 = getelementptr inbounds nuw i32, ptr %87, i64 %indvars.iv118
  store i32 -1, ptr %88, align 4
  br label %111

89:                                               ; preds = %81
  br i1 %85, label %.preheader, label %.loopexit88

.preheader:                                       ; preds = %89
  %90 = load i32, ptr %3, align 4
  %.not8498 = icmp ult i32 %.073102, %90
  br i1 %.not8498, label %.lr.ph100.preheader, label %.loopexit

.lr.ph100.preheader:                              ; preds = %.preheader
  %91 = zext i32 %.073102 to i64
  %92 = trunc nuw i64 %indvars.iv118 to i32
  br label %.lr.ph100

.lr.ph100:                                        ; preds = %.lr.ph100.preheader, %98
  %indvars.iv115 = phi i64 [ %91, %.lr.ph100.preheader ], [ %indvars.iv.next116, %98 ]
  %93 = load ptr, ptr %78, align 8
  %94 = getelementptr inbounds nuw i32, ptr %93, i64 %indvars.iv115
  store i32 %92, ptr %94, align 4
  %95 = load ptr, ptr %79, align 8
  %96 = getelementptr inbounds nuw %struct.CSzFolder, ptr %95, i64 %indvars.iv115, i32 9
  %97 = load i32, ptr %96, align 4
  %.not85 = icmp eq i32 %97, 0
  br i1 %.not85, label %98, label %.loopexit88.loopexit

98:                                               ; preds = %.lr.ph100
  %indvars.iv.next116 = add nuw nsw i64 %indvars.iv115, 1
  %99 = load i32, ptr %3, align 4
  %100 = zext i32 %99 to i64
  %.not84 = icmp samesign ult i64 %indvars.iv.next116, %100
  br i1 %.not84, label %.lr.ph100, label %.loopexit

.loopexit88.loopexit:                             ; preds = %.lr.ph100
  %101 = trunc nuw i64 %indvars.iv115 to i32
  br label %.loopexit88

.loopexit88:                                      ; preds = %.loopexit88.loopexit, %89
  %.2 = phi i32 [ %.073102, %89 ], [ %101, %.loopexit88.loopexit ]
  %102 = load ptr, ptr %80, align 8
  %103 = getelementptr inbounds nuw i32, ptr %102, i64 %indvars.iv118
  store i32 %.2, ptr %103, align 4
  br i1 %.not, label %111, label %104

104:                                              ; preds = %.loopexit88
  %105 = add i32 %.072103, 1
  %106 = load ptr, ptr %79, align 8
  %107 = zext i32 %.2 to i64
  %108 = getelementptr inbounds nuw %struct.CSzFolder, ptr %106, i64 %107, i32 9
  %109 = load i32, ptr %108, align 4
  %.not86 = icmp uge i32 %105, %109
  %110 = zext i1 %.not86 to i32
  %spec.select = add i32 %.2, %110
  %spec.select87 = select i1 %.not86, i32 0, i32 %105
  br label %111

111:                                              ; preds = %104, %.loopexit88, %86
  %.174 = phi i32 [ %.073102, %86 ], [ %.2, %.loopexit88 ], [ %spec.select, %104 ]
  %.1 = phi i32 [ 0, %86 ], [ %.072103, %.loopexit88 ], [ %spec.select87, %104 ]
  %indvars.iv.next119 = add nuw nsw i64 %indvars.iv118, 1
  %112 = load i32, ptr %64, align 8
  %113 = zext i32 %112 to i64
  %114 = icmp samesign ult i64 %indvars.iv.next119, %113
  br i1 %114, label %81, label %.loopexit

.loopexit:                                        ; preds = %111, %.preheader, %98, %.thread129, %75, %68, %56, %32, %7
  %.0 = phi i32 [ 2, %7 ], [ 2, %32 ], [ 2, %56 ], [ 2, %68 ], [ 0, %75 ], [ 0, %.thread129 ], [ 16, %98 ], [ 16, %.preheader ], [ 0, %111 ]
  ret i32 %.0
}